target datalayout = "e-m:e-p270:32:32-p271:32:32-p272:64:64-i64:64-i128:128-f80:128-n8:16:32:64-S128"
target triple = "x86_64-pc-linux-gnu"

%"struct.logging::LoggingSettings" = type { i32, ptr, i32, i32 }

; Function Attrs: mustprogress nounwind uwtable
define void @_ZN7logging15LoggingSettingsC2Ev(ptr noundef nonnull align 8 dereferenceable(24) %0) unnamed_addr #5 align 2 {
  %2 = alloca ptr, align 8
  store ptr %0, ptr %2, align 8, !tbaa !24
  %3 = load ptr, ptr %2, align 8
  %4 = getelementptr inbounds nuw %"struct.logging::LoggingSettings", ptr %3, i32 0, i32 0
  store i32 2, ptr %4, align 8, !tbaa !26
  %5 = getelementptr inbounds nuw %"struct.logging::LoggingSettings", ptr %3, i32 0, i32 1
  store ptr null, ptr %5, align 8, !tbaa !31
  %6 = getelementptr inbounds nuw %"struct.logging::LoggingSettings", ptr %3, i32 0, i32 2
  store i32 0, ptr %6, align 8, !tbaa !32
  %7 = getelementptr inbounds nuw %"struct.logging::LoggingSettings", ptr %3, i32 0, i32 3
  store i32 1, ptr %7, align 4, !tbaa !33
  ret void
}