; Function Attrs: mustprogress nofree norecurse nosync nounwind willreturn memory(argmem: write) uwtable
define void @_ZN7logging15LoggingSettingsC2Ev(ptr noundef nonnull writeonly align 8 captures(none) dereferenceable(24) initializes((0, 4), (8, 24)) %0) unnamed_addr #5 align 2 {
  store i32 2, ptr %0, align 8, !tbaa !66
  %2 = getelementptr inbounds nuw i8, ptr %0, i64 8
  store ptr null, ptr %2, align 8, !tbaa !71
  %3 = getelementptr inbounds nuw i8, ptr %0, i64 16
  store i32 0, ptr %3, align 8, !tbaa !72
  %4 = getelementptr inbounds nuw i8, ptr %0, i64 20
  store i32 1, ptr %4, align 4, !tbaa !73
  ret void
}